target datalayout = "e-m:e-p270:32:32-p271:32:32-p272:64:64-i64:64-i128:128-f80:128-n8:16:32:64-S128"
target triple = "x86_64-pc-linux-gnu"

%struct.ForEachState = type { ptr, i32 }
%struct.List = type { i32, i32, i32, ptr, [0 x %union.ListCell] }
%union.ListCell = type { ptr }

@myTempNamespace = internal global i32 0, align 4
@activeSearchPath = internal global ptr null, align 8

; Function Attrs: nounwind uwtable
define dso_local i32 @FindDefaultConversionProc(i32 noundef %0, i32 noundef %1) #0 {
  %3 = alloca i32, align 4
  %4 = alloca i32, align 4
  %5 = alloca i32, align 4
  %6 = alloca i32, align 4
  %7 = alloca ptr, align 8
  %8 = alloca %struct.ForEachState, align 8
  %9 = alloca i32, align 4
  %10 = alloca i32, align 4
  store i32 %0, ptr %4, align 4
  store i32 %1, ptr %5, align 4
  call void @llvm.lifetime.start.p0(i64 4, ptr %6) #14
  call void @llvm.lifetime.start.p0(i64 8, ptr %7) #14
  call void @recomputeNamespacePath()
  call void @llvm.lifetime.start.p0(i64 16, ptr %8) #14
  %11 = getelementptr inbounds nuw %struct.ForEachState, ptr %8, i32 0, i32 0
  %12 = load ptr, ptr @activeSearchPath, align 8
  store ptr %12, ptr %11, align 8
  %13 = getelementptr inbounds nuw %struct.ForEachState, ptr %8, i32 0, i32 1
  store i32 0, ptr %13, align 8
  %14 = getelementptr i8, ptr %8, i64 12
  call void @llvm.memset.p0.i64(ptr align 4 %14, i8 0, i64 4, i1 false)
  br label %15

15:                                               ; preds = %61, %2
  %16 = getelementptr inbounds nuw %struct.ForEachState, ptr %8, i32 0, i32 0
  %17 = load ptr, ptr %16, align 8
  %18 = icmp ne ptr %17, null
  br i1 %18, label %19, label %36

19:                                               ; preds = %15
  %20 = getelementptr inbounds nuw %struct.ForEachState, ptr %8, i32 0, i32 1
  %21 = load i32, ptr %20, align 8
  %22 = getelementptr inbounds nuw %struct.ForEachState, ptr %8, i32 0, i32 0
  %23 = load ptr, ptr %22, align 8
  %24 = getelementptr inbounds nuw %struct.List, ptr %23, i32 0, i32 1
  %25 = load i32, ptr %24, align 4
  %26 = icmp slt i32 %21, %25
  br i1 %26, label %27, label %36

27:                                               ; preds = %19
  %28 = getelementptr inbounds nuw %struct.ForEachState, ptr %8, i32 0, i32 0
  %29 = load ptr, ptr %28, align 8
  %30 = getelementptr inbounds nuw %struct.List, ptr %29, i32 0, i32 3
  %31 = load ptr, ptr %30, align 8
  %32 = getelementptr inbounds nuw %struct.ForEachState, ptr %8, i32 0, i32 1
  %33 = load i32, ptr %32, align 8
  %34 = sext i32 %33 to i64
  %35 = getelementptr inbounds %union.ListCell, ptr %31, i64 %34
  store ptr %35, ptr %7, align 8
  br label %37

36:                                               ; preds = %19, %15
  store ptr null, ptr %7, align 8
  br label %37

37:                                               ; preds = %36, %27
  %38 = phi i32 [ 1, %27 ], [ 0, %36 ]
  %39 = icmp ne i32 %38, 0
  br i1 %39, label %41, label %40

40:                                               ; preds = %37
  store i32 2, ptr %9, align 4
  br label %65

41:                                               ; preds = %37
  call void @llvm.lifetime.start.p0(i64 4, ptr %10) #14
  %42 = load ptr, ptr %7, align 8
  %43 = load i32, ptr %42, align 8
  store i32 %43, ptr %10, align 4
  %44 = load i32, ptr %10, align 4
  %45 = load i32, ptr @myTempNamespace, align 4
  %46 = icmp eq i32 %44, %45
  br i1 %46, label %47, label %48

47:                                               ; preds = %41
  store i32 4, ptr %9, align 4
  br label %58

48:                                               ; preds = %41
  %49 = load i32, ptr %10, align 4
  %50 = load i32, ptr %4, align 4
  %51 = load i32, ptr %5, align 4
  %52 = call i32 @FindDefaultConversion(i32 noundef %49, i32 noundef %50, i32 noundef %51)
  store i32 %52, ptr %6, align 4
  %53 = load i32, ptr %6, align 4
  %54 = icmp ne i32 %53, 0
  br i1 %54, label %55, label %57

55:                                               ; preds = %48
  %56 = load i32, ptr %6, align 4
  store i32 %56, ptr %3, align 4
  store i32 1, ptr %9, align 4
  br label %58

57:                                               ; preds = %48
  store i32 0, ptr %9, align 4
  br label %58

58:                                               ; preds = %57, %55, %47
  call void @llvm.lifetime.end.p0(i64 4, ptr %10) #14
  %59 = load i32, ptr %9, align 4
  switch i32 %59, label %65 [
    i32 0, label %60
    i32 4, label %61
  ]

60:                                               ; preds = %58
  br label %61

61:                                               ; preds = %60, %58
  %62 = getelementptr inbounds nuw %struct.ForEachState, ptr %8, i32 0, i32 1
  %63 = load i32, ptr %62, align 8
  %64 = add i32 %63, 1
  store i32 %64, ptr %62, align 8
  br label %15, !llvm.loop !47

65:                                               ; preds = %58, %40
  call void @llvm.lifetime.end.p0(i64 16, ptr %8) #14
  %66 = load i32, ptr %9, align 4
  switch i32 %66, label %68 [
    i32 2, label %67
  ]

67:                                               ; preds = %65
  store i32 0, ptr %3, align 4
  store i32 1, ptr %9, align 4
  br label %68

68:                                               ; preds = %67, %65
  call void @llvm.lifetime.end.p0(i64 8, ptr %7) #14
  call void @llvm.lifetime.end.p0(i64 4, ptr %6) #14
  %69 = load i32, ptr %3, align 4
  ret i32 %69
}