; Function Attrs: nounwind uwtable
define dso_local i32 @FindDefaultConversionProc(i32 noundef %0, i32 noundef %1) local_unnamed_addr #0 {
  tail call fastcc void @recomputeNamespacePath()
  %3 = load ptr, ptr @activeSearchPath, align 8
  %4 = getelementptr inbounds nuw i8, ptr %3, i64 4
  %.not = icmp eq ptr %3, null
  br i1 %.not, label %._crit_edge33, label %.lr.ph

.lr.ph:                                           ; preds = %2
  %5 = getelementptr inbounds nuw i8, ptr %3, i64 16
  %6 = load i32, ptr %4, align 4
  %7 = icmp sgt i32 %6, 0
  br i1 %7, label %.lr.ph40.preheader, label %._crit_edge33

.lr.ph40.preheader:                               ; preds = %.lr.ph
  %.pre42 = load i32, ptr @myTempNamespace, align 4
  br label %.lr.ph40

.lr.ph40:                                         ; preds = %.lr.ph40.preheader, %select.unfold
  %8 = phi i32 [ %6, %.lr.ph40.preheader ], [ %16, %select.unfold ]
  %9 = phi i32 [ %.pre42, %.lr.ph40.preheader ], [ %17, %select.unfold ]
  %indvars.iv = phi i64 [ 0, %.lr.ph40.preheader ], [ %indvars.iv.next, %select.unfold ]
  %10 = load ptr, ptr %5, align 8
  %11 = getelementptr inbounds nuw %union.ListCell, ptr %10, i64 %indvars.iv
  %12 = load i32, ptr %11, align 8
  %13 = icmp eq i32 %12, %9
  br i1 %13, label %select.unfold, label %14

14:                                               ; preds = %.lr.ph40
  %15 = tail call i32 @FindDefaultConversion(i32 noundef %12, i32 noundef %0, i32 noundef %1) #19
  %.not20 = icmp eq i32 %15, 0
  br i1 %.not20, label %.select.unfold_crit_edge, label %._crit_edge33

.select.unfold_crit_edge:                         ; preds = %14
  %.pre = load i32, ptr @myTempNamespace, align 4
  %.pre43 = load i32, ptr %4, align 4
  br label %select.unfold

select.unfold:                                    ; preds = %.select.unfold_crit_edge, %.lr.ph40
  %16 = phi i32 [ %.pre43, %.select.unfold_crit_edge ], [ %8, %.lr.ph40 ]
  %17 = phi i32 [ %.pre, %.select.unfold_crit_edge ], [ %9, %.lr.ph40 ]
  %indvars.iv.next = add nuw nsw i64 %indvars.iv, 1
  %18 = sext i32 %16 to i64
  %19 = icmp slt i64 %indvars.iv.next, %18
  br i1 %19, label %.lr.ph40, label %._crit_edge33

._crit_edge33:                                    ; preds = %14, %select.unfold, %.lr.ph, %2
  %20 = phi i32 [ 0, %2 ], [ 0, %.lr.ph ], [ 0, %select.unfold ], [ %15, %14 ]
  ret i32 %20
}